target datalayout = "e-m:e-p270:32:32-p271:32:32-p272:64:64-i64:64-i128:128-f80:128-n8:16:32:64-S128"
target triple = "x86_64-pc-linux-gnu"

%struct.expert_field = type { i32, i32 }

@hf_PCEPF_NOTI_TYPE = internal global i32 0, align 4
@hf_PCEPF_NOTI_VAL1 = internal global i32 0, align 4
@hf_PCEPF_NOTI_VAL2 = internal global i32 0, align 4
@hf_pcep_notification_obj_reserved = internal global i32 0, align 4
@hf_pcep_notification_obj_flags = internal global i32 0, align 4
@hf_pcep_notification_obj_type = internal global i32 0, align 4
@hf_pcep_notification_obj_value = internal global i32 0, align 4
@ett_pcep_obj_notification = internal global i32 0, align 4
@ei_pcep_subobject_bad_length = internal global %struct.expert_field zeroinitializer, align 4
@.str.1182 = private unnamed_addr constant [51 x i8] c"Bad NOTIFICATION object length %u, should be >= %u\00", align 1

; Function Attrs: null_pointer_is_valid sspstrong uwtable
define internal void @dissect_pcep_tlvs(ptr noundef %0, ptr noundef %1, i32 noundef %2, i32 noundef %3, i32 noundef %4) #0 {
  %6 = alloca ptr, align 8
  %7 = alloca ptr, align 8
  %8 = alloca i32, align 4
  %9 = alloca i32, align 4
  %10 = alloca i32, align 4
  store ptr %0, ptr %6, align 8
  store ptr %1, ptr %7, align 8
  store i32 %2, ptr %8, align 4
  store i32 %3, ptr %9, align 4
  store i32 %4, ptr %10, align 4
  %11 = load ptr, ptr %6, align 8
  %12 = load ptr, ptr %7, align 8
  %13 = load i32, ptr %8, align 4
  %14 = load i32, ptr %9, align 4
  %15 = load i32, ptr %10, align 4
  call void @dissect_pcep_tlvs_with_scope(ptr noundef %11, ptr noundef %12, i32 noundef %13, i32 noundef %14, i32 noundef %15, i16 noundef zeroext 0)
  ret void
}

; Function Attrs: null_pointer_is_valid sspstrong uwtable
define internal void @dissect_pcep_notification_obj(ptr noundef %0, ptr noundef %1, ptr noundef %2, i32 noundef %3, i32 noundef %4, i32 noundef %5, i32 noundef %6) #0 {
  %8 = alloca ptr, align 8
  %9 = alloca ptr, align 8
  %10 = alloca ptr, align 8
  %11 = alloca i32, align 4
  %12 = alloca i32, align 4
  %13 = alloca i32, align 4
  %14 = alloca i32, align 4
  %15 = alloca i8, align 1
  %16 = alloca i32, align 4
  store ptr %0, ptr %8, align 8
  store ptr %1, ptr %9, align 8
  store ptr %2, ptr %10, align 8
  store i32 %3, ptr %11, align 4
  store i32 %4, ptr %12, align 4
  store i32 %5, ptr %13, align 4
  store i32 %6, ptr %14, align 4
  call void @llvm.lifetime.start.p0(i64 1, ptr %15) #4
  %17 = load i32, ptr %12, align 4
  %18 = icmp slt i32 %17, 8
  br i1 %18, label %19, label %27

19:                                               ; preds = %7
  %20 = load ptr, ptr %8, align 8
  %21 = load ptr, ptr %9, align 8
  %22 = load ptr, ptr %10, align 8
  %23 = load i32, ptr %11, align 4
  %24 = load i32, ptr %12, align 4
  %25 = load i32, ptr %12, align 4
  %26 = call ptr (ptr, ptr, ptr, ptr, i32, i32, ptr, ...) @proto_tree_add_expert_format(ptr noundef %20, ptr noundef %21, ptr noundef @ei_pcep_subobject_bad_length, ptr noundef %22, i32 noundef %23, i32 noundef %24, ptr noundef @.str.1182, i32 noundef %25, i32 noundef 8)
  store i32 1, ptr %16, align 4
  br label %88

27:                                               ; preds = %7
  %28 = load ptr, ptr %8, align 8
  %29 = load i32, ptr @hf_pcep_notification_obj_reserved, align 4
  %30 = load ptr, ptr %10, align 8
  %31 = load i32, ptr %11, align 4
  %32 = call ptr @proto_tree_add_item(ptr noundef %28, i32 noundef %29, ptr noundef %30, i32 noundef %31, i32 noundef 1, i32 noundef 0)
  %33 = load ptr, ptr %8, align 8
  %34 = load i32, ptr @hf_pcep_notification_obj_flags, align 4
  %35 = load ptr, ptr %10, align 8
  %36 = load i32, ptr %11, align 4
  %37 = add i32 %36, 1
  %38 = call ptr @proto_tree_add_item(ptr noundef %33, i32 noundef %34, ptr noundef %35, i32 noundef %37, i32 noundef 1, i32 noundef 0)
  %39 = load ptr, ptr %10, align 8
  %40 = load i32, ptr %11, align 4
  %41 = add i32 %40, 2
  %42 = call zeroext i8 @tvb_get_uint8(ptr noundef %39, i32 noundef %41)
  store i8 %42, ptr %15, align 1
  %43 = load ptr, ptr %8, align 8
  %44 = load i32, ptr @hf_PCEPF_NOTI_TYPE, align 4
  %45 = load ptr, ptr %10, align 8
  %46 = load i32, ptr %11, align 4
  %47 = add i32 %46, 2
  %48 = call ptr @proto_tree_add_item(ptr noundef %43, i32 noundef %44, ptr noundef %45, i32 noundef %47, i32 noundef 1, i32 noundef 0)
  %49 = load i8, ptr %15, align 1
  %50 = zext i8 %49 to i32
  switch i32 %50, label %65 [
    i32 1, label %51
    i32 2, label %58
  ]

51:                                               ; preds = %27
  %52 = load ptr, ptr %8, align 8
  %53 = load i32, ptr @hf_PCEPF_NOTI_VAL1, align 4
  %54 = load ptr, ptr %10, align 8
  %55 = load i32, ptr %11, align 4
  %56 = add i32 %55, 2
  %57 = call ptr @proto_tree_add_item(ptr noundef %52, i32 noundef %53, ptr noundef %54, i32 noundef %56, i32 noundef 1, i32 noundef 0)
  br label %72

58:                                               ; preds = %27
  %59 = load ptr, ptr %8, align 8
  %60 = load i32, ptr @hf_PCEPF_NOTI_VAL2, align 4
  %61 = load ptr, ptr %10, align 8
  %62 = load i32, ptr %11, align 4
  %63 = add i32 %62, 2
  %64 = call ptr @proto_tree_add_item(ptr noundef %59, i32 noundef %60, ptr noundef %61, i32 noundef %63, i32 noundef 1, i32 noundef 0)
  br label %72

65:                                               ; preds = %27
  %66 = load ptr, ptr %8, align 8
  %67 = load i32, ptr @hf_pcep_notification_obj_type, align 4
  %68 = load ptr, ptr %10, align 8
  %69 = load i32, ptr %11, align 4
  %70 = add i32 %69, 2
  %71 = call ptr @proto_tree_add_item(ptr noundef %66, i32 noundef %67, ptr noundef %68, i32 noundef %70, i32 noundef 1, i32 noundef 0)
  br label %72

72:                                               ; preds = %65, %58, %51
  %73 = load ptr, ptr %8, align 8
  %74 = load i32, ptr @hf_pcep_notification_obj_value, align 4
  %75 = load ptr, ptr %10, align 8
  %76 = load i32, ptr %11, align 4
  %77 = add i32 %76, 3
  %78 = call ptr @proto_tree_add_item(ptr noundef %73, i32 noundef %74, ptr noundef %75, i32 noundef %77, i32 noundef 1, i32 noundef 0)
  %79 = load i32, ptr %11, align 4
  %80 = add i32 %79, 4
  store i32 %80, ptr %11, align 4
  %81 = load i32, ptr %12, align 4
  %82 = sub i32 %81, 8
  store i32 %82, ptr %12, align 4
  %83 = load ptr, ptr %8, align 8
  %84 = load ptr, ptr %10, align 8
  %85 = load i32, ptr %11, align 4
  %86 = load i32, ptr %12, align 4
  %87 = load i32, ptr @ett_pcep_obj_notification, align 4
  call void @dissect_pcep_tlvs(ptr noundef %83, ptr noundef %84, i32 noundef %85, i32 noundef %86, i32 noundef %87)
  store i32 0, ptr %16, align 4
  br label %88

88:                                               ; preds = %72, %19
  call void @llvm.lifetime.end.p0(i64 1, ptr %15) #4
  %89 = load i32, ptr %16, align 4
  switch i32 %89, label %91 [
    i32 0, label %90
    i32 1, label %90
  ]

90:                                               ; preds = %88, %88
  ret void

91:                                               ; preds = %88
  unreachable
}