; Function Attrs: null_pointer_is_valid sspstrong uwtable
define internal void @dissect_pcep_notification_obj(ptr noundef %0, ptr noundef %1, ptr noundef %2, i32 noundef %3, i32 noundef %4, i32 %5, i32 %6) #0 {
  %8 = icmp slt i32 %4, 8
  br i1 %8, label %9, label %11

9:                                                ; preds = %7
  %10 = tail call ptr (ptr, ptr, ptr, ptr, i32, i32, ptr, ...) @proto_tree_add_expert_format(ptr noundef %0, ptr noundef %1, ptr noundef nonnull @ei_pcep_subobject_bad_length, ptr noundef %2, i32 noundef %3, i32 noundef %4, ptr noundef nonnull @.str.1182, i32 noundef %4, i32 noundef 8)
  br label %29

11:                                               ; preds = %7
  %12 = load i32, ptr @hf_pcep_notification_obj_reserved, align 4
  %13 = tail call ptr @proto_tree_add_item(ptr noundef %0, i32 noundef %12, ptr noundef %2, i32 noundef %3, i32 noundef 1, i32 noundef 0)
  %14 = load i32, ptr @hf_pcep_notification_obj_flags, align 4
  %15 = add i32 %3, 1
  %16 = tail call ptr @proto_tree_add_item(ptr noundef %0, i32 noundef %14, ptr noundef %2, i32 noundef %15, i32 noundef 1, i32 noundef 0)
  %17 = add i32 %3, 2
  %18 = tail call zeroext i8 @tvb_get_uint8(ptr noundef %2, i32 noundef %17)
  %19 = load i32, ptr @hf_PCEPF_NOTI_TYPE, align 4
  %20 = tail call ptr @proto_tree_add_item(ptr noundef %0, i32 noundef %19, ptr noundef %2, i32 noundef %17, i32 noundef 1, i32 noundef 0)
  %switch.selectcmp = icmp eq i8 %18, 2
  %switch.selectcmp36 = icmp eq i8 %18, 1
  %hf_PCEPF_NOTI_VAL1.val = load i32, ptr @hf_PCEPF_NOTI_VAL1, align 4
  %hf_PCEPF_NOTI_VAL2.val = load i32, ptr @hf_PCEPF_NOTI_VAL2, align 4
  %hf_pcep_notification_obj_type.val = load i32, ptr @hf_pcep_notification_obj_type, align 4
  %switch.select.val = select i1 %switch.selectcmp, i32 %hf_PCEPF_NOTI_VAL2.val, i32 %hf_pcep_notification_obj_type.val
  %21 = select i1 %switch.selectcmp36, i32 %hf_PCEPF_NOTI_VAL1.val, i32 %switch.select.val
  %22 = tail call ptr @proto_tree_add_item(ptr noundef %0, i32 noundef %21, ptr noundef %2, i32 noundef %17, i32 noundef 1, i32 noundef 0)
  %23 = load i32, ptr @hf_pcep_notification_obj_value, align 4
  %24 = add i32 %3, 3
  %25 = tail call ptr @proto_tree_add_item(ptr noundef %0, i32 noundef %23, ptr noundef %2, i32 noundef %24, i32 noundef 1, i32 noundef 0)
  %26 = add i32 %3, 4
  %27 = add nsw i32 %4, -8
  %28 = load i32, ptr @ett_pcep_obj_notification, align 4
  tail call fastcc void @dissect_pcep_tlvs_with_scope(ptr noundef %0, ptr noundef %2, i32 noundef %26, i32 noundef range(i32 0, 2147483640) %27, i32 noundef %28, i16 noundef zeroext 0)
  br label %29

29:                                               ; preds = %11, %9
  ret void
}